; Function Attrs: mustprogress nounwind uwtable
define internal void @"_ZNK4$_389to_stringB5cxx11E6insn_t"(ptr dead_on_unwind noalias writable sret(%"class.std::__cxx11::basic_string") align 8 %0, ptr nocapture nonnull readnone align 8 %1, i64 %2) unnamed_addr #8 align 2 {
  %4 = lshr i64 %2, 2
  %5 = and i64 %4, 16
  %6 = shl i64 %2, 3
  %7 = and i64 %6, 32
  %8 = or disjoint i64 %5, %7
  %9 = shl i64 %2, 1
  %10 = and i64 %9, 64
  %11 = or disjoint i64 %8, %10
  %12 = shl i64 %2, 4
  %13 = and i64 %12, 384
  %14 = or disjoint i64 %11, %13
  %15 = shl i64 %2, 51
  %16 = ashr i64 %15, 54
  %17 = and i64 %16, 4294966784
  %18 = or disjoint i64 %14, %17
  %19 = trunc i64 %18 to i32
  tail call void @_ZNSt7__cxx119to_stringEi(ptr dead_on_unwind writable sret(%"class.std::__cxx11::basic_string") align 8 %0, i32 noundef %19) #19
  ret void
}